target datalayout = "e-m:e-p270:32:32-p271:32:32-p272:64:64-i64:64-i128:128-f80:128-n8:16:32:64-S128"
target triple = "x86_64-pc-linux-gnu"

%struct.ForEachState = type { ptr, i32 }
%struct.List = type { i32, i32, i32, ptr, [0 x %union.ListCell] }
%union.ListCell = type { ptr }
%struct.Node = type { i32 }
%struct.RangeTblRef = type { i32, i32 }

@.str.1 = private unnamed_addr constant [15 x i8] c"analyzejoins.c\00", align 1
@.str.2 = private unnamed_addr constant [36 x i8] c"unrecognized joinlist node type: %d\00", align 1
@__func__.remove_rel_from_joinlist = private unnamed_addr constant [25 x i8] c"remove_rel_from_joinlist\00", align 1

; Function Attrs: nounwind uwtable
define internal ptr @remove_rel_from_joinlist(ptr noundef %0, i32 noundef %1, ptr noundef %2) #0 {
  %4 = alloca ptr, align 8
  %5 = alloca i32, align 4
  %6 = alloca ptr, align 8
  %7 = alloca ptr, align 8
  %8 = alloca ptr, align 8
  %9 = alloca %struct.ForEachState, align 8
  %10 = alloca ptr, align 8
  %11 = alloca i32, align 4
  %12 = alloca ptr, align 8
  store ptr %0, ptr %4, align 8
  store i32 %1, ptr %5, align 4
  store ptr %2, ptr %6, align 8
  call void @llvm.lifetime.start.p0(i64 8, ptr %7) #7
  store ptr null, ptr %7, align 8
  call void @llvm.lifetime.start.p0(i64 8, ptr %8) #7
  call void @llvm.lifetime.start.p0(i64 16, ptr %9) #7
  %13 = getelementptr inbounds nuw %struct.ForEachState, ptr %9, i32 0, i32 0
  %14 = load ptr, ptr %4, align 8
  store ptr %14, ptr %13, align 8
  %15 = getelementptr inbounds nuw %struct.ForEachState, ptr %9, i32 0, i32 1
  store i32 0, ptr %15, align 8
  %16 = getelementptr i8, ptr %9, i64 12
  call void @llvm.memset.p0.i64(ptr align 4 %16, i8 0, i64 4, i1 false)
  br label %17

17:                                               ; preds = %99, %3
  %18 = getelementptr inbounds nuw %struct.ForEachState, ptr %9, i32 0, i32 0
  %19 = load ptr, ptr %18, align 8
  %20 = icmp ne ptr %19, null
  br i1 %20, label %21, label %38

21:                                               ; preds = %17
  %22 = getelementptr inbounds nuw %struct.ForEachState, ptr %9, i32 0, i32 1
  %23 = load i32, ptr %22, align 8
  %24 = getelementptr inbounds nuw %struct.ForEachState, ptr %9, i32 0, i32 0
  %25 = load ptr, ptr %24, align 8
  %26 = getelementptr inbounds nuw %struct.List, ptr %25, i32 0, i32 1
  %27 = load i32, ptr %26, align 4
  %28 = icmp slt i32 %23, %27
  br i1 %28, label %29, label %38

29:                                               ; preds = %21
  %30 = getelementptr inbounds nuw %struct.ForEachState, ptr %9, i32 0, i32 0
  %31 = load ptr, ptr %30, align 8
  %32 = getelementptr inbounds nuw %struct.List, ptr %31, i32 0, i32 3
  %33 = load ptr, ptr %32, align 8
  %34 = getelementptr inbounds nuw %struct.ForEachState, ptr %9, i32 0, i32 1
  %35 = load i32, ptr %34, align 8
  %36 = sext i32 %35 to i64
  %37 = getelementptr inbounds %union.ListCell, ptr %33, i64 %36
  store ptr %37, ptr %8, align 8
  br label %39

38:                                               ; preds = %21, %17
  store ptr null, ptr %8, align 8
  br label %39

39:                                               ; preds = %38, %29
  %40 = phi i32 [ 1, %29 ], [ 0, %38 ]
  %41 = icmp ne i32 %40, 0
  br i1 %41, label %43, label %42

42:                                               ; preds = %39
  call void @llvm.lifetime.end.p0(i64 16, ptr %9) #7
  br label %103

43:                                               ; preds = %39
  call void @llvm.lifetime.start.p0(i64 8, ptr %10) #7
  %44 = load ptr, ptr %8, align 8
  %45 = load ptr, ptr %44, align 8
  store ptr %45, ptr %10, align 8
  %46 = load ptr, ptr %10, align 8
  %47 = getelementptr inbounds nuw %struct.Node, ptr %46, i32 0, i32 0
  %48 = load i32, ptr %47, align 4
  %49 = icmp eq i32 %48, 63
  br i1 %49, label %50, label %66

50:                                               ; preds = %43
  call void @llvm.lifetime.start.p0(i64 4, ptr %11) #7
  %51 = load ptr, ptr %10, align 8
  %52 = getelementptr inbounds nuw %struct.RangeTblRef, ptr %51, i32 0, i32 1
  %53 = load i32, ptr %52, align 4
  store i32 %53, ptr %11, align 4
  %54 = load i32, ptr %11, align 4
  %55 = load i32, ptr %5, align 4
  %56 = icmp eq i32 %54, %55
  br i1 %56, label %57, label %61

57:                                               ; preds = %50
  %58 = load ptr, ptr %6, align 8
  %59 = load i32, ptr %58, align 4
  %60 = add i32 %59, 1
  store i32 %60, ptr %58, align 4
  br label %65

61:                                               ; preds = %50
  %62 = load ptr, ptr %7, align 8
  %63 = load ptr, ptr %10, align 8
  %64 = call ptr @lappend(ptr noundef %62, ptr noundef %63)
  store ptr %64, ptr %7, align 8
  br label %65

65:                                               ; preds = %61, %57
  call void @llvm.lifetime.end.p0(i64 4, ptr %11) #7
  br label %98

66:                                               ; preds = %43
  %67 = load ptr, ptr %10, align 8
  %68 = getelementptr inbounds nuw %struct.Node, ptr %67, i32 0, i32 0
  %69 = load i32, ptr %68, align 4
  %70 = icmp eq i32 %69, 1
  br i1 %70, label %71, label %83

71:                                               ; preds = %66
  call void @llvm.lifetime.start.p0(i64 8, ptr %12) #7
  %72 = load ptr, ptr %10, align 8
  %73 = load i32, ptr %5, align 4
  %74 = load ptr, ptr %6, align 8
  %75 = call ptr @remove_rel_from_joinlist(ptr noundef %72, i32 noundef %73, ptr noundef %74)
  store ptr %75, ptr %12, align 8
  %76 = load ptr, ptr %12, align 8
  %77 = icmp ne ptr %76, null
  br i1 %77, label %78, label %82

78:                                               ; preds = %71
  %79 = load ptr, ptr %7, align 8
  %80 = load ptr, ptr %12, align 8
  %81 = call ptr @lappend(ptr noundef %79, ptr noundef %80)
  store ptr %81, ptr %7, align 8
  br label %82

82:                                               ; preds = %78, %71
  call void @llvm.lifetime.end.p0(i64 8, ptr %12) #7
  br label %97

83:                                               ; preds = %66
  br label %84

84:                                               ; preds = %83
  br i1 true, label %85, label %87

85:                                               ; preds = %84
  %86 = call zeroext i1 @errstart_cold(i32 noundef 21, ptr noundef null) #8
  br i1 %86, label %89, label %94

87:                                               ; preds = %84
  %88 = call zeroext i1 @errstart(i32 noundef 21, ptr noundef null)
  br i1 %88, label %89, label %94

89:                                               ; preds = %87, %85
  %90 = load ptr, ptr %10, align 8
  %91 = getelementptr inbounds nuw %struct.Node, ptr %90, i32 0, i32 0
  %92 = load i32, ptr %91, align 4
  %93 = call i32 (ptr, ...) @errmsg_internal(ptr noundef @.str.2, i32 noundef %92)
  call void @errfinish(ptr noundef @.str.1, i32 noundef 772, ptr noundef @__func__.remove_rel_from_joinlist)
  br label %94

94:                                               ; preds = %89, %87, %85
  unreachable

95:                                               ; No predecessors!
  br label %96

96:                                               ; preds = %95
  br label %97

97:                                               ; preds = %96, %82
  br label %98

98:                                               ; preds = %97, %65
  call void @llvm.lifetime.end.p0(i64 8, ptr %10) #7
  br label %99

99:                                               ; preds = %98
  %100 = getelementptr inbounds nuw %struct.ForEachState, ptr %9, i32 0, i32 1
  %101 = load i32, ptr %100, align 8
  %102 = add i32 %101, 1
  store i32 %102, ptr %100, align 8
  br label %17, !llvm.loop !12

103:                                              ; preds = %42
  %104 = load ptr, ptr %7, align 8
  call void @llvm.lifetime.end.p0(i64 8, ptr %8) #7
  call void @llvm.lifetime.end.p0(i64 8, ptr %7) #7
  ret ptr %104
}