; Function Attrs: nounwind uwtable
define internal fastcc ptr @remove_rel_from_joinlist(ptr noundef readonly captures(address_is_null) %0, i32 noundef %1, ptr noundef nonnull captures(none) %2) unnamed_addr #0 {
  %.not = icmp eq ptr %0, null
  br i1 %.not, label %._crit_edge, label %.lr.ph

.lr.ph:                                           ; preds = %3
  %4 = getelementptr inbounds nuw i8, ptr %0, i64 4
  %5 = getelementptr inbounds nuw i8, ptr %0, i64 16
  %6 = load i32, ptr %4, align 4
  %7 = icmp sgt i32 %6, 0
  br i1 %7, label %.lr.ph38, label %._crit_edge

._crit_edge:                                      ; preds = %28, %.lr.ph, %3
  %.0.lcssa = phi ptr [ null, %3 ], [ null, %.lr.ph ], [ %.2, %28 ]
  ret ptr %.0.lcssa

.lr.ph38:                                         ; preds = %.lr.ph, %28
  %indvars.iv = phi i64 [ %indvars.iv.next, %28 ], [ 0, %.lr.ph ]
  %.03136 = phi ptr [ %.2, %28 ], [ null, %.lr.ph ]
  %8 = load ptr, ptr %5, align 8
  %9 = getelementptr inbounds nuw %union.ListCell, ptr %8, i64 %indvars.iv
  %10 = load ptr, ptr %9, align 8
  %11 = load i32, ptr %10, align 4
  switch i32 %11, label %.split [
    i32 63, label %12
    i32 1, label %21
  ]

12:                                               ; preds = %.lr.ph38
  %13 = getelementptr inbounds nuw i8, ptr %10, i64 4
  %14 = load i32, ptr %13, align 4
  %15 = icmp eq i32 %14, %1
  br i1 %15, label %16, label %19

16:                                               ; preds = %12
  %17 = load i32, ptr %2, align 4
  %18 = add i32 %17, 1
  store i32 %18, ptr %2, align 4
  br label %28

19:                                               ; preds = %12
  %20 = tail call ptr @lappend(ptr noundef %.03136, ptr noundef nonnull %10) #7
  br label %28

21:                                               ; preds = %.lr.ph38
  %22 = tail call fastcc ptr @remove_rel_from_joinlist(ptr noundef nonnull %10, i32 noundef %1, ptr noundef %2)
  %.not26 = icmp eq ptr %22, null
  br i1 %.not26, label %28, label %23

23:                                               ; preds = %21
  %24 = tail call ptr @lappend(ptr noundef %.03136, ptr noundef nonnull %22) #7
  br label %28

.split:                                           ; preds = %.lr.ph38
  %25 = tail call zeroext i1 @errstart_cold(i32 noundef 21, ptr noundef null) #8
  tail call void @llvm.assume(i1 %25)
  %26 = load i32, ptr %10, align 4
  %27 = tail call i32 (ptr, ...) @errmsg_internal(ptr noundef nonnull @.str.2, i32 noundef %26) #7
  tail call void @errfinish(ptr noundef nonnull @.str.1, i32 noundef 772, ptr noundef nonnull @__func__.remove_rel_from_joinlist) #7
  unreachable

28:                                               ; preds = %21, %23, %16, %19
  %.2 = phi ptr [ %.03136, %16 ], [ %20, %19 ], [ %24, %23 ], [ %.03136, %21 ]
  %indvars.iv.next = add nuw nsw i64 %indvars.iv, 1
  %29 = load i32, ptr %4, align 4
  %30 = sext i32 %29 to i64
  %31 = icmp slt i64 %indvars.iv.next, %30
  br i1 %31, label %.lr.ph38, label %._crit_edge
}